; Function Attrs: nounwind uwtable
define zeroext range(i8 0, 2) i8 @l_Array_anyMUnsafe_any___at___private_Lean_Elab_Tactic_Try_0__Lean_Elab_Tactic_Try_mergeParams___spec__2(ptr noundef %0, ptr noundef readonly captures(none) %1, i64 noundef %2, i64 noundef %3) local_unnamed_addr #0 {
  %.not35 = icmp eq i64 %2, %3
  br i1 %.not35, label %._crit_edge, label %.lr.ph

.lr.ph:                                           ; preds = %4
  %5 = getelementptr inbounds nuw i8, ptr %1, i64 24
  %6 = ptrtoint ptr %0 to i64
  %7 = and i64 %6, 1
  %.not34 = icmp eq i64 %7, 0
  br i1 %.not34, label %.lr.ph.split.us, label %.lr.ph.split

.lr.ph.split.us:                                  ; preds = %.lr.ph, %lean_dec.exit22.us
  %.01736.us = phi i64 [ %25, %lean_dec.exit22.us ], [ %2, %.lr.ph ]
  %8 = getelementptr inbounds nuw [0 x ptr], ptr %5, i64 0, i64 %.01736.us
  %9 = load ptr, ptr %8, align 8, !tbaa !4
  %10 = ptrtoint ptr %9 to i64
  %11 = and i64 %10, 1
  %.not.i25.us = icmp eq i64 %11, 0
  br i1 %.not.i25.us, label %12, label %lean_array_uget.exit.us

12:                                               ; preds = %.lr.ph.split.us
  %.val.i.i.us = load i32, ptr %9, align 4, !tbaa !8
  %13 = icmp sgt i32 %.val.i.i.us, 0
  br i1 %13, label %16, label %14, !prof !11

14:                                               ; preds = %12
  %.not.i.i.us = icmp eq i32 %.val.i.i.us, 0
  br i1 %.not.i.i.us, label %lean_array_uget.exit.us, label %15

15:                                               ; preds = %14
  tail call void @lean_inc_ref_cold(ptr noundef nonnull %9) #5
  br label %lean_array_uget.exit.us

16:                                               ; preds = %12
  %17 = add nuw i32 %.val.i.i.us, 1
  store i32 %17, ptr %9, align 4, !tbaa !8
  br label %lean_array_uget.exit.us

lean_array_uget.exit.us:                          ; preds = %16, %15, %14, %.lr.ph.split.us
  %.val.i.us = load i32, ptr %0, align 4, !tbaa !8
  %18 = icmp sgt i32 %.val.i.us, 0
  br i1 %18, label %21, label %19, !prof !11

19:                                               ; preds = %lean_array_uget.exit.us
  %.not.i26.us = icmp eq i32 %.val.i.us, 0
  br i1 %.not.i26.us, label %lean_inc.exit.us, label %20

20:                                               ; preds = %19
  tail call void @lean_inc_ref_cold(ptr noundef nonnull %0) #5
  br label %lean_inc.exit.us

21:                                               ; preds = %lean_array_uget.exit.us
  %22 = add nuw i32 %.val.i.us, 1
  store i32 %22, ptr %0, align 4, !tbaa !8
  br label %lean_inc.exit.us

lean_inc.exit.us:                                 ; preds = %21, %20, %19
  %23 = tail call zeroext i8 @l_Lean_Syntax_structEq(ptr noundef nonnull %0, ptr noundef %9) #5
  %24 = icmp eq i8 %23, 0
  br i1 %24, label %lean_dec.exit22.us, label %.split.us

lean_dec.exit22.us:                               ; preds = %lean_inc.exit.us
  %25 = add i64 %.01736.us, 1
  %.not.us = icmp eq i64 %25, %3
  br i1 %.not.us, label %._crit_edge.thread, label %.lr.ph.split.us

.lr.ph.split:                                     ; preds = %.lr.ph, %lean_dec.exit22
  %.01736 = phi i64 [ %51, %lean_dec.exit22 ], [ %2, %.lr.ph ]
  %26 = getelementptr inbounds nuw [0 x ptr], ptr %5, i64 0, i64 %.01736
  %27 = load ptr, ptr %26, align 8, !tbaa !4
  %28 = ptrtoint ptr %27 to i64
  %29 = and i64 %28, 1
  %.not.i25 = icmp eq i64 %29, 0
  br i1 %.not.i25, label %30, label %lean_array_uget.exit

30:                                               ; preds = %.lr.ph.split
  %.val.i.i = load i32, ptr %27, align 4, !tbaa !8
  %31 = icmp sgt i32 %.val.i.i, 0
  br i1 %31, label %32, label %34, !prof !11

32:                                               ; preds = %30
  %33 = add nuw i32 %.val.i.i, 1
  store i32 %33, ptr %27, align 4, !tbaa !8
  br label %lean_array_uget.exit

34:                                               ; preds = %30
  %.not.i.i = icmp eq i32 %.val.i.i, 0
  br i1 %.not.i.i, label %lean_array_uget.exit, label %35

35:                                               ; preds = %34
  tail call void @lean_inc_ref_cold(ptr noundef nonnull %27) #5
  br label %lean_array_uget.exit

lean_array_uget.exit:                             ; preds = %.lr.ph.split, %32, %34, %35
  %36 = tail call zeroext i8 @l_Lean_Syntax_structEq(ptr noundef %0, ptr noundef %27) #5
  %37 = icmp eq i8 %36, 0
  br i1 %37, label %lean_dec.exit22, label %.thread

.split.us:                                        ; preds = %lean_inc.exit.us
  %38 = load i32, ptr %0, align 4, !tbaa !8
  %39 = icmp sgt i32 %38, 1
  br i1 %39, label %40, label %42, !prof !11

40:                                               ; preds = %.split.us
  %41 = add nsw i32 %38, -1
  store i32 %41, ptr %0, align 4, !tbaa !8
  br label %.thread

42:                                               ; preds = %.split.us
  %.not.i = icmp eq i32 %38, 0
  br i1 %.not.i, label %.thread, label %43

43:                                               ; preds = %42
  tail call void @lean_dec_ref_cold(ptr noundef nonnull %0) #5
  br label %.thread

._crit_edge:                                      ; preds = %4
  %.pre = ptrtoint ptr %0 to i64
  %.pre38 = and i64 %.pre, 1
  %44 = icmp eq i64 %.pre38, 0
  br i1 %44, label %._crit_edge.thread, label %.thread

._crit_edge.thread:                               ; preds = %lean_dec.exit22.us, %._crit_edge
  %45 = load i32, ptr %0, align 4, !tbaa !8
  %46 = icmp sgt i32 %45, 1
  br i1 %46, label %47, label %49, !prof !11

47:                                               ; preds = %._crit_edge.thread
  %48 = add nsw i32 %45, -1
  store i32 %48, ptr %0, align 4, !tbaa !8
  br label %.thread

49:                                               ; preds = %._crit_edge.thread
  %.not.i23 = icmp eq i32 %45, 0
  br i1 %.not.i23, label %.thread, label %50

50:                                               ; preds = %49
  tail call void @lean_dec_ref_cold(ptr noundef nonnull %0) #5
  br label %.thread

lean_dec.exit22:                                  ; preds = %lean_array_uget.exit
  %51 = add i64 %.01736, 1
  %.not = icmp eq i64 %51, %3
  br i1 %.not, label %.thread, label %.lr.ph.split

.thread:                                          ; preds = %lean_array_uget.exit, %lean_dec.exit22, %43, %42, %40, %50, %49, %47, %._crit_edge
  %.2.ph = phi i8 [ 0, %._crit_edge ], [ 0, %47 ], [ 0, %49 ], [ 0, %50 ], [ 1, %40 ], [ 1, %42 ], [ 1, %43 ], [ 1, %lean_array_uget.exit ], [ 0, %lean_dec.exit22 ]
  ret i8 %.2.ph
}